target datalayout = "e-m:e-p270:32:32-p271:32:32-p272:64:64-i64:64-i128:128-f80:128-n8:16:32:64-S128"
target triple = "x86_64-pc-linux-gnu"

%"class.std::__cxx11::basic_string" = type { %"struct.std::__cxx11::basic_string<char>::_Alloc_hider", i64, %union.anon }
%"struct.std::__cxx11::basic_string<char>::_Alloc_hider" = type { ptr }
%union.anon = type { i64, [8 x i8] }
%"class.std::vector.164" = type { %"struct.std::_Vector_base.165" }
%"struct.std::_Vector_base.165" = type { %"struct.std::_Vector_base<char *, std::allocator<char *>>::_Vector_impl" }
%"struct.std::_Vector_base<char *, std::allocator<char *>>::_Vector_impl" = type { %"struct.std::_Vector_base<char *, std::allocator<char *>>::_Vector_impl_data" }
%"struct.std::_Vector_base<char *, std::allocator<char *>>::_Vector_impl_data" = type { ptr, ptr, ptr }
%"struct.Yosys::RTLIL::IdString" = type { i32 }

@_ZN5Yosys5RTLIL8IdString18global_id_storage_E = external global %"class.std::vector.164", align 8
@.str.70 = private unnamed_addr constant [74 x i8] c"vector::_M_range_check: __n (which is %zu) >= this->size() (which is %zu)\00", align 1

; Function Attrs: mustprogress nounwind uwtable
define linkonce_odr noundef i64 @_ZNKSt6vectorIPcSaIS0_EE4sizeEv(ptr noundef nonnull align 8 dereferenceable(24) %0) #4 comdat align 2 {
  %2 = alloca ptr, align 8
  store ptr %0, ptr %2, align 8, !tbaa !374
  %3 = load ptr, ptr %2, align 8
  %4 = getelementptr inbounds nuw %"struct.std::_Vector_base.165", ptr %3, i32 0, i32 0
  %5 = getelementptr inbounds nuw %"struct.std::_Vector_base<char *, std::allocator<char *>>::_Vector_impl_data", ptr %4, i32 0, i32 1
  %6 = load ptr, ptr %5, align 8, !tbaa !382
  %7 = getelementptr inbounds nuw %"struct.std::_Vector_base.165", ptr %3, i32 0, i32 0
  %8 = getelementptr inbounds nuw %"struct.std::_Vector_base<char *, std::allocator<char *>>::_Vector_impl_data", ptr %7, i32 0, i32 0
  %9 = load ptr, ptr %8, align 8, !tbaa !380
  %10 = ptrtoint ptr %6 to i64
  %11 = ptrtoint ptr %9 to i64
  %12 = sub i64 %10, %11
  %13 = sdiv exact i64 %12, 8
  ret i64 %13
}

; Function Attrs: mustprogress nounwind uwtable
define linkonce_odr noundef nonnull align 8 dereferenceable(8) ptr @_ZNSt6vectorIPcSaIS0_EEixEm(ptr noundef nonnull align 8 dereferenceable(24) %0, i64 noundef %1) #4 comdat align 2 {
  %3 = alloca ptr, align 8
  %4 = alloca i64, align 8
  store ptr %0, ptr %3, align 8, !tbaa !374
  store i64 %1, ptr %4, align 8, !tbaa !19
  %5 = load ptr, ptr %3, align 8
  %6 = getelementptr inbounds nuw %"struct.std::_Vector_base.165", ptr %5, i32 0, i32 0
  %7 = getelementptr inbounds nuw %"struct.std::_Vector_base<char *, std::allocator<char *>>::_Vector_impl_data", ptr %6, i32 0, i32 0
  %8 = load ptr, ptr %7, align 8, !tbaa !380
  %9 = load i64, ptr %4, align 8, !tbaa !19
  %10 = getelementptr inbounds nuw ptr, ptr %8, i64 %9
  ret ptr %10
}

; Function Attrs: mustprogress uwtable
define linkonce_odr void @_ZNKSt6vectorIPcSaIS0_EE14_M_range_checkEm(ptr noundef nonnull align 8 dereferenceable(24) %0, i64 noundef %1) #5 comdat align 2 {
  %3 = alloca ptr, align 8
  %4 = alloca i64, align 8
  store ptr %0, ptr %3, align 8, !tbaa !374
  store i64 %1, ptr %4, align 8, !tbaa !19
  %5 = load ptr, ptr %3, align 8
  %6 = load i64, ptr %4, align 8, !tbaa !19
  %7 = call noundef i64 @_ZNKSt6vectorIPcSaIS0_EE4sizeEv(ptr noundef nonnull align 8 dereferenceable(24) %5) #3
  %8 = icmp uge i64 %6, %7
  br i1 %8, label %9, label %12

9:                                                ; preds = %2
  %10 = load i64, ptr %4, align 8, !tbaa !19
  %11 = call noundef i64 @_ZNKSt6vectorIPcSaIS0_EE4sizeEv(ptr noundef nonnull align 8 dereferenceable(24) %5) #3
  call void (ptr, ...) @_ZSt24__throw_out_of_range_fmtPKcz(ptr noundef @.str.70, i64 noundef %10, i64 noundef %11) #23
  unreachable

12:                                               ; preds = %2
  ret void
}

; Function Attrs: mustprogress nounwind uwtable
define available_externally noundef ptr @_ZNKSt7__cxx1112basic_stringIcSt11char_traitsIcESaIcEE7_M_dataEv(ptr noundef nonnull align 8 dereferenceable(32) %0) #4 align 2 {
  %2 = alloca ptr, align 8
  store ptr %0, ptr %2, align 8, !tbaa !31
  %3 = load ptr, ptr %2, align 8
  %4 = getelementptr inbounds nuw %"class.std::__cxx11::basic_string", ptr %3, i32 0, i32 0
  %5 = getelementptr inbounds nuw %"struct.std::__cxx11::basic_string<char>::_Alloc_hider", ptr %4, i32 0, i32 0
  %6 = load ptr, ptr %5, align 8, !tbaa !222
  ret ptr %6
}

; Function Attrs: mustprogress uwtable
define linkonce_odr noundef nonnull align 8 dereferenceable(8) ptr @_ZNSt6vectorIPcSaIS0_EE2atEm(ptr noundef nonnull align 8 dereferenceable(24) %0, i64 noundef %1) #5 comdat align 2 {
  %3 = alloca ptr, align 8
  %4 = alloca i64, align 8
  store ptr %0, ptr %3, align 8, !tbaa !374
  store i64 %1, ptr %4, align 8, !tbaa !19
  %5 = load ptr, ptr %3, align 8
  %6 = load i64, ptr %4, align 8, !tbaa !19
  call void @_ZNKSt6vectorIPcSaIS0_EE14_M_range_checkEm(ptr noundef nonnull align 8 dereferenceable(24) %5, i64 noundef %6)
  %7 = load i64, ptr %4, align 8, !tbaa !19
  %8 = call noundef nonnull align 8 dereferenceable(8) ptr @_ZNSt6vectorIPcSaIS0_EEixEm(ptr noundef nonnull align 8 dereferenceable(24) %5, i64 noundef %7) #3
  ret ptr %8
}

; Function Attrs: inlinehint mustprogress nounwind uwtable
define linkonce_odr noundef zeroext i1 @_ZSteqIcSt11char_traitsIcESaIcEEbPKT_RKNSt7__cxx1112basic_stringIS3_T0_T1_EE(ptr noundef %0, ptr noundef nonnull align 8 dereferenceable(32) %1) #8 comdat {
  %3 = alloca ptr, align 8
  %4 = alloca ptr, align 8
  store ptr %0, ptr %3, align 8, !tbaa !32
  store ptr %1, ptr %4, align 8, !tbaa !31
  %5 = load ptr, ptr %4, align 8, !tbaa !31
  %6 = load ptr, ptr %3, align 8, !tbaa !32
  %7 = call noundef i32 @_ZNKSt7__cxx1112basic_stringIcSt11char_traitsIcESaIcEE7compareEPKc(ptr noundef nonnull align 8 dereferenceable(32) %5, ptr noundef %6) #3
  %8 = icmp eq i32 %7, 0
  ret i1 %8
}

; Function Attrs: inlinehint mustprogress nounwind uwtable
define linkonce_odr noundef zeroext i1 @_ZSteqIcSt11char_traitsIcESaIcEEbRKNSt7__cxx1112basic_stringIT_T0_T1_EEPKS5_(ptr noundef nonnull align 8 dereferenceable(32) %0, ptr noundef %1) #8 comdat {
  %3 = alloca ptr, align 8
  %4 = alloca ptr, align 8
  store ptr %0, ptr %3, align 8, !tbaa !31
  store ptr %1, ptr %4, align 8, !tbaa !32
  %5 = load ptr, ptr %3, align 8, !tbaa !31
  %6 = load ptr, ptr %4, align 8, !tbaa !32
  %7 = call noundef i32 @_ZNKSt7__cxx1112basic_stringIcSt11char_traitsIcESaIcEE7compareEPKc(ptr noundef nonnull align 8 dereferenceable(32) %5, ptr noundef %6) #3
  %8 = icmp eq i32 %7, 0
  ret i1 %8
}

; Function Attrs: mustprogress nounwind uwtable
define available_externally noundef i64 @_ZNKSt7__cxx1112basic_stringIcSt11char_traitsIcESaIcEE4sizeEv(ptr noundef nonnull align 8 dereferenceable(32) %0) #4 align 2 {
  %2 = alloca ptr, align 8
  store ptr %0, ptr %2, align 8, !tbaa !31
  %3 = load ptr, ptr %2, align 8
  %4 = getelementptr inbounds nuw %"class.std::__cxx11::basic_string", ptr %3, i32 0, i32 1
  %5 = load i64, ptr %4, align 8, !tbaa !141
  ret i64 %5
}

; Function Attrs: mustprogress nounwind uwtable
define available_externally noundef ptr @_ZNKSt7__cxx1112basic_stringIcSt11char_traitsIcESaIcEE5c_strEv(ptr noundef nonnull align 8 dereferenceable(32) %0) #4 align 2 {
  %2 = alloca ptr, align 8
  store ptr %0, ptr %2, align 8, !tbaa !31
  %3 = load ptr, ptr %2, align 8
  %4 = call noundef ptr @_ZNKSt7__cxx1112basic_stringIcSt11char_traitsIcESaIcEE7_M_dataEv(ptr noundef nonnull align 8 dereferenceable(32) %3)
  ret ptr %4
}

; Function Attrs: inlinehint mustprogress uwtable
define linkonce_odr noundef ptr @_ZNK5Yosys5RTLIL8IdString5c_strEv(ptr noundef nonnull align 4 dereferenceable(4) %0) #9 comdat align 2 {
  %2 = alloca ptr, align 8
  store ptr %0, ptr %2, align 8, !tbaa !117
  %3 = load ptr, ptr %2, align 8
  %4 = getelementptr inbounds nuw %"struct.Yosys::RTLIL::IdString", ptr %3, i32 0, i32 0
  %5 = load i32, ptr %4, align 4, !tbaa !160
  %6 = sext i32 %5 to i64
  %7 = call noundef nonnull align 8 dereferenceable(8) ptr @_ZNSt6vectorIPcSaIS0_EE2atEm(ptr noundef nonnull align 8 dereferenceable(24) @_ZN5Yosys5RTLIL8IdString18global_id_storage_E, i64 noundef %6)
  %8 = load ptr, ptr %7, align 8, !tbaa !32
  ret ptr %8
}

; Function Attrs: mustprogress uwtable
define linkonce_odr noundef zeroext i1 @_ZNK5Yosys5RTLIL8IdStringeqERKNSt7__cxx1112basic_stringIcSt11char_traitsIcESaIcEEE(ptr noundef nonnull align 4 dereferenceable(4) %0, ptr noundef nonnull align 8 dereferenceable(32) %1) #5 comdat align 2 {
  %3 = alloca ptr, align 8
  %4 = alloca ptr, align 8
  store ptr %0, ptr %3, align 8, !tbaa !117
  store ptr %1, ptr %4, align 8, !tbaa !31
  %5 = load ptr, ptr %3, align 8
  %6 = call noundef ptr @_ZNK5Yosys5RTLIL8IdString5c_strEv(ptr noundef nonnull align 4 dereferenceable(4) %5)
  %7 = load ptr, ptr %4, align 8, !tbaa !31
  %8 = call noundef zeroext i1 @_ZSteqIcSt11char_traitsIcESaIcEEbPKT_RKNSt7__cxx1112basic_stringIS3_T0_T1_EE(ptr noundef %6, ptr noundef nonnull align 8 dereferenceable(32) %7)
  ret i1 %8
}

; Function Attrs: mustprogress uwtable
define internal noundef zeroext i1 @_ZN12_GLOBAL__N_19match_idsEN5Yosys5RTLIL8IdStringERKNSt7__cxx1112basic_stringIcSt11char_traitsIcESaIcEEE(ptr noundef %0, ptr noundef nonnull align 8 dereferenceable(32) %1) #5 {
  %3 = alloca i1, align 1
  %4 = alloca ptr, align 8
  %5 = alloca ptr, align 8
  %6 = alloca ptr, align 8
  %7 = alloca ptr, align 8
  %8 = alloca i64, align 8
  %9 = alloca i64, align 8
  %10 = alloca i32, align 4
  %11 = alloca ptr, align 8
  store ptr %0, ptr %4, align 8, !tbaa !117
  store ptr %1, ptr %5, align 8, !tbaa !31
  %12 = load ptr, ptr %5, align 8, !tbaa !31
  %13 = call noundef zeroext i1 @_ZNK5Yosys5RTLIL8IdStringeqERKNSt7__cxx1112basic_stringIcSt11char_traitsIcESaIcEEE(ptr noundef nonnull align 4 dereferenceable(4) %0, ptr noundef nonnull align 8 dereferenceable(32) %12)
  br i1 %13, label %14, label %15

14:                                               ; preds = %2
  store i1 true, ptr %3, align 1
  br label %79

15:                                               ; preds = %2
  call void @llvm.lifetime.start.p0(i64 8, ptr %6) #3
  %16 = call noundef ptr @_ZNK5Yosys5RTLIL8IdString5c_strEv(ptr noundef nonnull align 4 dereferenceable(4) %0)
  store ptr %16, ptr %6, align 8, !tbaa !32
  call void @llvm.lifetime.start.p0(i64 8, ptr %7) #3
  %17 = load ptr, ptr %5, align 8, !tbaa !31
  %18 = call noundef ptr @_ZNKSt7__cxx1112basic_stringIcSt11char_traitsIcESaIcEE5c_strEv(ptr noundef nonnull align 8 dereferenceable(32) %17) #3
  store ptr %18, ptr %7, align 8, !tbaa !32
  call void @llvm.lifetime.start.p0(i64 8, ptr %8) #3
  %19 = load ptr, ptr %6, align 8, !tbaa !32
  %20 = call i64 @strlen(ptr noundef %19) #24
  store i64 %20, ptr %8, align 8, !tbaa !19
  call void @llvm.lifetime.start.p0(i64 8, ptr %9) #3
  %21 = load ptr, ptr %5, align 8, !tbaa !31
  %22 = call noundef i64 @_ZNKSt7__cxx1112basic_stringIcSt11char_traitsIcESaIcEE4sizeEv(ptr noundef nonnull align 8 dereferenceable(32) %21) #3
  store i64 %22, ptr %9, align 8, !tbaa !19
  %23 = load ptr, ptr %6, align 8, !tbaa !32
  %24 = load i8, ptr %23, align 1, !tbaa !38
  %25 = sext i8 %24 to i32
  %26 = icmp eq i32 %25, 92
  br i1 %26, label %27, label %40

27:                                               ; preds = %15
  %28 = load i64, ptr %8, align 8, !tbaa !19
  %29 = load i64, ptr %9, align 8, !tbaa !19
  %30 = add i64 1, %29
  %31 = icmp eq i64 %28, %30
  br i1 %31, label %32, label %40

32:                                               ; preds = %27
  %33 = load ptr, ptr %6, align 8, !tbaa !32
  %34 = getelementptr inbounds i8, ptr %33, i64 1
  %35 = load ptr, ptr %7, align 8, !tbaa !32
  %36 = load i64, ptr %9, align 8, !tbaa !19
  %37 = call i32 @memcmp(ptr noundef %34, ptr noundef %35, i64 noundef %36) #24
  %38 = icmp eq i32 %37, 0
  br i1 %38, label %39, label %40

39:                                               ; preds = %32
  store i1 true, ptr %3, align 1
  store i32 1, ptr %10, align 4
  br label %78

40:                                               ; preds = %32, %27, %15
  %41 = load ptr, ptr %7, align 8, !tbaa !32
  %42 = load ptr, ptr %6, align 8, !tbaa !32
  %43 = call noundef zeroext i1 @_ZN5Yosys8patmatchEPKcS1_(ptr noundef %41, ptr noundef %42)
  br i1 %43, label %44, label %45

44:                                               ; preds = %40
  store i1 true, ptr %3, align 1
  store i32 1, ptr %10, align 4
  br label %78

45:                                               ; preds = %40
  %46 = load ptr, ptr %6, align 8, !tbaa !32
  %47 = load i8, ptr %46, align 1, !tbaa !38
  %48 = sext i8 %47 to i32
  %49 = icmp eq i32 %48, 92
  br i1 %49, label %50, label %56

50:                                               ; preds = %45
  %51 = load ptr, ptr %7, align 8, !tbaa !32
  %52 = load ptr, ptr %6, align 8, !tbaa !32
  %53 = getelementptr inbounds i8, ptr %52, i64 1
  %54 = call noundef zeroext i1 @_ZN5Yosys8patmatchEPKcS1_(ptr noundef %51, ptr noundef %53)
  br i1 %54, label %55, label %56

55:                                               ; preds = %50
  store i1 true, ptr %3, align 1
  store i32 1, ptr %10, align 4
  br label %78

56:                                               ; preds = %50, %45
  %57 = load ptr, ptr %6, align 8, !tbaa !32
  %58 = load i8, ptr %57, align 1, !tbaa !38
  %59 = sext i8 %58 to i32
  %60 = icmp eq i32 %59, 36
  br i1 %60, label %61, label %77

61:                                               ; preds = %56
  %62 = load ptr, ptr %7, align 8, !tbaa !32
  %63 = load i8, ptr %62, align 1, !tbaa !38
  %64 = sext i8 %63 to i32
  %65 = icmp eq i32 %64, 36
  br i1 %65, label %66, label %77

66:                                               ; preds = %61
  call void @llvm.lifetime.start.p0(i64 8, ptr %11) #3
  %67 = load ptr, ptr %6, align 8, !tbaa !32
  %68 = call noundef ptr @strrchr(ptr noundef %67, i32 noundef 36) #24
  store ptr %68, ptr %11, align 8, !tbaa !32
  %69 = load ptr, ptr %5, align 8, !tbaa !31
  %70 = load ptr, ptr %11, align 8, !tbaa !32
  %71 = call noundef zeroext i1 @_ZSteqIcSt11char_traitsIcESaIcEEbRKNSt7__cxx1112basic_stringIT_T0_T1_EEPKS5_(ptr noundef nonnull align 8 dereferenceable(32) %69, ptr noundef %70)
  br i1 %71, label %72, label %73

72:                                               ; preds = %66
  store i1 true, ptr %3, align 1
  store i32 1, ptr %10, align 4
  br label %74

73:                                               ; preds = %66
  store i32 0, ptr %10, align 4
  br label %74

74:                                               ; preds = %73, %72
  call void @llvm.lifetime.end.p0(i64 8, ptr %11) #3
  %75 = load i32, ptr %10, align 4
  switch i32 %75, label %78 [
    i32 0, label %76
  ]

76:                                               ; preds = %74
  br label %77

77:                                               ; preds = %76, %61, %56
  store i1 false, ptr %3, align 1
  store i32 1, ptr %10, align 4
  br label %78

78:                                               ; preds = %77, %74, %55, %44, %39
  call void @llvm.lifetime.end.p0(i64 8, ptr %9) #3
  call void @llvm.lifetime.end.p0(i64 8, ptr %8) #3
  call void @llvm.lifetime.end.p0(i64 8, ptr %7) #3
  call void @llvm.lifetime.end.p0(i64 8, ptr %6) #3
  br label %79

79:                                               ; preds = %78, %14
  %80 = load i1, ptr %3, align 1
  ret i1 %80
}