; Function Attrs: mustprogress uwtable
define internal fastcc noundef zeroext i1 @_ZN12_GLOBAL__N_19match_idsEN5Yosys5RTLIL8IdStringERKNSt7__cxx1112basic_stringIcSt11char_traitsIcESaIcEEE(ptr noundef nonnull readonly captures(none) %0, ptr noundef nonnull align 8 dereferenceable(32) %1) unnamed_addr #4 {
  %3 = load i32, ptr %0, align 4, !tbaa !68
  %4 = sext i32 %3 to i64
  %5 = load ptr, ptr getelementptr inbounds nuw (i8, ptr @_ZN5Yosys5RTLIL8IdString18global_id_storage_E, i64 8), align 8, !tbaa !575
  %6 = load ptr, ptr @_ZN5Yosys5RTLIL8IdString18global_id_storage_E, align 8, !tbaa !578
  %7 = ptrtoint ptr %5 to i64
  %8 = ptrtoint ptr %6 to i64
  %9 = sub i64 %7, %8
  %10 = ashr exact i64 %9, 3
  %.not.i.i.i.i = icmp ugt i64 %10, %4
  br i1 %.not.i.i.i.i, label %_ZNK5Yosys5RTLIL8IdStringeqERKNSt7__cxx1112basic_stringIcSt11char_traitsIcESaIcEEE.exit, label %11

11:                                               ; preds = %2
  tail call void (ptr, ...) @_ZSt24__throw_out_of_range_fmtPKcz(ptr noundef nonnull @.str.70, i64 noundef %4, i64 noundef %10) #32
  unreachable

_ZNK5Yosys5RTLIL8IdStringeqERKNSt7__cxx1112basic_stringIcSt11char_traitsIcESaIcEEE.exit: ; preds = %2
  %12 = getelementptr inbounds nuw ptr, ptr %6, i64 %4
  %13 = load ptr, ptr %12, align 8, !tbaa !579
  %14 = tail call noundef i32 @_ZNKSt7__cxx1112basic_stringIcSt11char_traitsIcESaIcEE7compareEPKc(ptr noundef nonnull align 8 dereferenceable(32) %1, ptr noundef %13) #30
  %15 = icmp eq i32 %14, 0
  br i1 %15, label %58, label %16

16:                                               ; preds = %_ZNK5Yosys5RTLIL8IdStringeqERKNSt7__cxx1112basic_stringIcSt11char_traitsIcESaIcEEE.exit
  %17 = load i32, ptr %0, align 4, !tbaa !68
  %18 = sext i32 %17 to i64
  %19 = load ptr, ptr getelementptr inbounds nuw (i8, ptr @_ZN5Yosys5RTLIL8IdString18global_id_storage_E, i64 8), align 8, !tbaa !575
  %20 = load ptr, ptr @_ZN5Yosys5RTLIL8IdString18global_id_storage_E, align 8, !tbaa !578
  %21 = ptrtoint ptr %19 to i64
  %22 = ptrtoint ptr %20 to i64
  %23 = sub i64 %21, %22
  %24 = ashr exact i64 %23, 3
  %.not.i.i.i = icmp ugt i64 %24, %18
  br i1 %.not.i.i.i, label %_ZNK5Yosys5RTLIL8IdString5c_strEv.exit, label %25

25:                                               ; preds = %16
  tail call void (ptr, ...) @_ZSt24__throw_out_of_range_fmtPKcz(ptr noundef nonnull @.str.70, i64 noundef %18, i64 noundef %24) #32
  unreachable

_ZNK5Yosys5RTLIL8IdString5c_strEv.exit:           ; preds = %16
  %26 = getelementptr inbounds nuw ptr, ptr %20, i64 %18
  %27 = load ptr, ptr %26, align 8, !tbaa !579
  %28 = load ptr, ptr %1, align 8, !tbaa !24
  %29 = tail call i64 @strlen(ptr noundef nonnull dereferenceable(1) %27) #35
  %30 = getelementptr inbounds nuw i8, ptr %1, i64 8
  %31 = load i64, ptr %30, align 8, !tbaa !27
  %32 = load i8, ptr %27, align 1, !tbaa !26
  %33 = icmp eq i8 %32, 92
  %34 = add i64 %31, 1
  %35 = icmp eq i64 %29, %34
  %or.cond = select i1 %33, i1 %35, i1 false
  br i1 %or.cond, label %36, label %39

36:                                               ; preds = %_ZNK5Yosys5RTLIL8IdString5c_strEv.exit
  %37 = getelementptr inbounds nuw i8, ptr %27, i64 1
  %bcmp = tail call i32 @bcmp(ptr nonnull %37, ptr %28, i64 %31)
  %38 = icmp eq i32 %bcmp, 0
  br i1 %38, label %58, label %39

39:                                               ; preds = %36, %_ZNK5Yosys5RTLIL8IdString5c_strEv.exit
  %40 = tail call noundef zeroext i1 @_ZN5Yosys8patmatchEPKcS1_(ptr noundef %28, ptr noundef nonnull %27)
  br i1 %40, label %58, label %41

41:                                               ; preds = %39
  %42 = load i8, ptr %27, align 1, !tbaa !26
  %43 = icmp eq i8 %42, 92
  br i1 %43, label %44, label %47

44:                                               ; preds = %41
  %45 = getelementptr inbounds nuw i8, ptr %27, i64 1
  %46 = tail call noundef zeroext i1 @_ZN5Yosys8patmatchEPKcS1_(ptr noundef %28, ptr noundef nonnull %45)
  br i1 %46, label %58, label %thread-pre-split

thread-pre-split:                                 ; preds = %44
  %.pr = load i8, ptr %27, align 1, !tbaa !26
  br label %47

47:                                               ; preds = %thread-pre-split, %41
  %48 = phi i8 [ %.pr, %thread-pre-split ], [ %42, %41 ]
  %49 = icmp eq i8 %48, 36
  br i1 %49, label %50, label %57

50:                                               ; preds = %47
  %51 = load i8, ptr %28, align 1, !tbaa !26
  %52 = icmp eq i8 %51, 36
  br i1 %52, label %53, label %57

53:                                               ; preds = %50
  %54 = tail call noundef ptr @strrchr(ptr noundef nonnull dereferenceable(1) %27, i32 noundef 36) #35
  %55 = tail call noundef i32 @_ZNKSt7__cxx1112basic_stringIcSt11char_traitsIcESaIcEE7compareEPKc(ptr noundef nonnull align 8 dereferenceable(32) %1, ptr noundef %54) #30
  %56 = icmp eq i32 %55, 0
  br i1 %56, label %58, label %57

57:                                               ; preds = %53, %50, %47
  br label %58

58:                                               ; preds = %57, %53, %36, %39, %44, %_ZNK5Yosys5RTLIL8IdStringeqERKNSt7__cxx1112basic_stringIcSt11char_traitsIcESaIcEEE.exit
  %.0 = phi i1 [ true, %_ZNK5Yosys5RTLIL8IdStringeqERKNSt7__cxx1112basic_stringIcSt11char_traitsIcESaIcEEE.exit ], [ false, %57 ], [ true, %53 ], [ true, %36 ], [ true, %39 ], [ true, %44 ]
  ret i1 %.0
}